target datalayout = "e-m:e-p270:32:32-p271:32:32-p272:64:64-i64:64-i128:128-f80:128-n8:16:32:64-S128"
target triple = "x86_64-pc-linux-gnu"

%"class.casadi::SparsityInternal" = type { %"class.casadi::SharedObjectInternal", %"class.std::vector", ptr }
%"class.casadi::SharedObjectInternal" = type { ptr, i64, ptr }
%"class.std::vector" = type { %"struct.std::_Vector_base" }
%"struct.std::_Vector_base" = type { %"struct.std::_Vector_base<long long, std::allocator<long long>>::_Vector_impl" }
%"struct.std::_Vector_base<long long, std::allocator<long long>>::_Vector_impl" = type { %"struct.std::_Vector_base<long long, std::allocator<long long>>::_Vector_impl_data" }
%"struct.std::_Vector_base<long long, std::allocator<long long>>::_Vector_impl_data" = type { ptr, ptr, ptr }
%"class.__gnu_cxx::__normal_iterator.15" = type { ptr }

; Function Attrs: mustprogress nounwind uwtable
define linkonce_odr hidden void @_ZN9__gnu_cxx17__normal_iteratorIPKxSt6vectorIxSaIxEEEC2ERKS2_(ptr noundef nonnull align 8 dereferenceable(8) %0, ptr noundef nonnull align 8 dereferenceable(8) %1) unnamed_addr #4 comdat align 2 {
  %3 = alloca ptr, align 8
  %4 = alloca ptr, align 8
  store ptr %0, ptr %3, align 8
  store ptr %1, ptr %4, align 8
  %5 = load ptr, ptr %3, align 8
  %6 = getelementptr inbounds %"class.__gnu_cxx::__normal_iterator.15", ptr %5, i32 0, i32 0
  %7 = load ptr, ptr %4, align 8
  %8 = load ptr, ptr %7, align 8
  store ptr %8, ptr %6, align 8
  ret void
}

; Function Attrs: mustprogress nounwind uwtable
define linkonce_odr hidden noundef nonnull align 8 dereferenceable(8) ptr @_ZNK9__gnu_cxx17__normal_iteratorIPKxSt6vectorIxSaIxEEEdeEv(ptr noundef nonnull align 8 dereferenceable(8) %0) #4 comdat align 2 {
  %2 = alloca ptr, align 8
  store ptr %0, ptr %2, align 8
  %3 = load ptr, ptr %2, align 8
  %4 = getelementptr inbounds %"class.__gnu_cxx::__normal_iterator.15", ptr %3, i32 0, i32 0
  %5 = load ptr, ptr %4, align 8
  ret ptr %5
}

; Function Attrs: mustprogress nounwind uwtable
define linkonce_odr hidden ptr @_ZNKSt6vectorIxSaIxEE5beginEv(ptr noundef nonnull align 8 dereferenceable(24) %0) #4 comdat align 2 {
  %2 = alloca %"class.__gnu_cxx::__normal_iterator.15", align 8
  %3 = alloca ptr, align 8
  store ptr %0, ptr %3, align 8
  %4 = load ptr, ptr %3, align 8
  %5 = getelementptr inbounds %"struct.std::_Vector_base", ptr %4, i32 0, i32 0
  %6 = getelementptr inbounds %"struct.std::_Vector_base<long long, std::allocator<long long>>::_Vector_impl_data", ptr %5, i32 0, i32 0
  call void @_ZN9__gnu_cxx17__normal_iteratorIPKxSt6vectorIxSaIxEEEC2ERKS2_(ptr noundef nonnull align 8 dereferenceable(8) %2, ptr noundef nonnull align 8 dereferenceable(8) %6) #3
  %7 = getelementptr inbounds %"class.__gnu_cxx::__normal_iterator.15", ptr %2, i32 0, i32 0
  %8 = load ptr, ptr %7, align 8
  ret ptr %8
}

; Function Attrs: mustprogress nounwind uwtable
define linkonce_odr hidden noundef nonnull align 8 dereferenceable(8) ptr @_ZNKSt6vectorIxSaIxEE5frontEv(ptr noundef nonnull align 8 dereferenceable(24) %0) #4 comdat align 2 {
  %2 = alloca ptr, align 8
  %3 = alloca %"class.__gnu_cxx::__normal_iterator.15", align 8
  store ptr %0, ptr %2, align 8
  %4 = load ptr, ptr %2, align 8
  %5 = call ptr @_ZNKSt6vectorIxSaIxEE5beginEv(ptr noundef nonnull align 8 dereferenceable(24) %4) #3
  %6 = getelementptr inbounds %"class.__gnu_cxx::__normal_iterator.15", ptr %3, i32 0, i32 0
  store ptr %5, ptr %6, align 8
  %7 = call noundef nonnull align 8 dereferenceable(8) ptr @_ZNK9__gnu_cxx17__normal_iteratorIPKxSt6vectorIxSaIxEEEdeEv(ptr noundef nonnull align 8 dereferenceable(8) %3) #3
  ret ptr %7
}

; Function Attrs: mustprogress nounwind uwtable
define linkonce_odr hidden noundef nonnull align 8 dereferenceable(8) ptr @_ZNKSt6vectorIxSaIxEEixEm(ptr noundef nonnull align 8 dereferenceable(24) %0, i64 noundef %1) #4 comdat align 2 {
  %3 = alloca ptr, align 8
  %4 = alloca i64, align 8
  store ptr %0, ptr %3, align 8
  store i64 %1, ptr %4, align 8
  %5 = load ptr, ptr %3, align 8
  %6 = getelementptr inbounds %"struct.std::_Vector_base", ptr %5, i32 0, i32 0
  %7 = getelementptr inbounds %"struct.std::_Vector_base<long long, std::allocator<long long>>::_Vector_impl_data", ptr %6, i32 0, i32 0
  %8 = load ptr, ptr %7, align 8
  %9 = load i64, ptr %4, align 8
  %10 = getelementptr inbounds i64, ptr %8, i64 %9
  ret ptr %10
}

; Function Attrs: mustprogress nounwind uwtable
define linkonce_odr hidden noundef ptr @_ZNK6casadi16SparsityInternal3rowEv(ptr noundef nonnull align 8 dereferenceable(56) %0) #4 comdat align 2 {
  %2 = alloca ptr, align 8
  store ptr %0, ptr %2, align 8
  %3 = load ptr, ptr %2, align 8
  %4 = call noundef ptr @_ZNK6casadi16SparsityInternal6colindEv(ptr noundef nonnull align 8 dereferenceable(56) %3)
  %5 = call noundef i64 @_ZNK6casadi16SparsityInternal5size2Ev(ptr noundef nonnull align 8 dereferenceable(56) %3)
  %6 = getelementptr inbounds i64, ptr %4, i64 %5
  %7 = getelementptr inbounds i64, ptr %6, i64 1
  ret ptr %7
}

; Function Attrs: mustprogress nounwind uwtable
define linkonce_odr hidden noundef ptr @_ZNK6casadi16SparsityInternal6colindEv(ptr noundef nonnull align 8 dereferenceable(56) %0) #4 comdat align 2 {
  %2 = alloca ptr, align 8
  store ptr %0, ptr %2, align 8
  %3 = load ptr, ptr %2, align 8
  %4 = getelementptr inbounds %"class.casadi::SparsityInternal", ptr %3, i32 0, i32 1
  %5 = call noundef nonnull align 8 dereferenceable(8) ptr @_ZNKSt6vectorIxSaIxEE5frontEv(ptr noundef nonnull align 8 dereferenceable(24) %4) #3
  %6 = getelementptr inbounds i64, ptr %5, i64 2
  ret ptr %6
}

; Function Attrs: mustprogress nounwind uwtable
define linkonce_odr hidden noundef i64 @_ZNK6casadi16SparsityInternal5size2Ev(ptr noundef nonnull align 8 dereferenceable(56) %0) #4 comdat align 2 {
  %2 = alloca ptr, align 8
  store ptr %0, ptr %2, align 8
  %3 = load ptr, ptr %2, align 8
  %4 = getelementptr inbounds %"class.casadi::SparsityInternal", ptr %3, i32 0, i32 1
  %5 = call noundef nonnull align 8 dereferenceable(8) ptr @_ZNKSt6vectorIxSaIxEEixEm(ptr noundef nonnull align 8 dereferenceable(24) %4, i64 noundef 1) #3
  %6 = load i64, ptr %5, align 8
  ret i64 %6
}

; Function Attrs: mustprogress nounwind uwtable
define linkonce_odr hidden noundef i64 @_ZNK6casadi16SparsityInternal5size1Ev(ptr noundef nonnull align 8 dereferenceable(56) %0) #4 comdat align 2 {
  %2 = alloca ptr, align 8
  store ptr %0, ptr %2, align 8
  %3 = load ptr, ptr %2, align 8
  %4 = getelementptr inbounds %"class.casadi::SparsityInternal", ptr %3, i32 0, i32 1
  %5 = call noundef nonnull align 8 dereferenceable(8) ptr @_ZNKSt6vectorIxSaIxEEixEm(ptr noundef nonnull align 8 dereferenceable(24) %4, i64 noundef 0) #3
  %6 = load i64, ptr %5, align 8
  ret i64 %6
}

; Function Attrs: mustprogress uwtable
define noundef zeroext i1 @_ZNK6casadi16SparsityInternal10is_stackedERKNS_8SparsityEx(ptr noundef nonnull align 8 dereferenceable(56) %0, ptr noundef nonnull align 8 dereferenceable(8) %1, i64 noundef %2) #5 align 2 {
  %4 = alloca i1, align 1
  %5 = alloca ptr, align 8
  %6 = alloca ptr, align 8
  %7 = alloca i64, align 8
  %8 = alloca i64, align 8
  %9 = alloca i64, align 8
  %10 = alloca ptr, align 8
  %11 = alloca ptr, align 8
  %12 = alloca i64, align 8
  %13 = alloca i64, align 8
  %14 = alloca ptr, align 8
  %15 = alloca ptr, align 8
  %16 = alloca i64, align 8
  %17 = alloca i64, align 8
  %18 = alloca i64, align 8
  %19 = alloca i32, align 4
  %20 = alloca i32, align 4
  %21 = alloca i32, align 4
  store ptr %0, ptr %5, align 8
  store ptr %1, ptr %6, align 8
  store i64 %2, ptr %7, align 8
  %22 = load ptr, ptr %5, align 8
  %23 = load i64, ptr %7, align 8
  %24 = icmp eq i64 %23, 1
  br i1 %24, label %25, label %29

25:                                               ; preds = %3
  %26 = load ptr, ptr %6, align 8
  %27 = call noundef zeroext i1 @_ZNK6casadi16SparsityInternal8is_equalERKNS_8SparsityE(ptr noundef nonnull align 8 dereferenceable(56) %22, ptr noundef nonnull align 8 dereferenceable(8) %26)
  br i1 %27, label %28, label %29

28:                                               ; preds = %25
  store i1 true, ptr %4, align 1
  br label %135

29:                                               ; preds = %25, %3
  %30 = call noundef i64 @_ZNK6casadi16SparsityInternal5size1Ev(ptr noundef nonnull align 8 dereferenceable(56) %22)
  store i64 %30, ptr %8, align 8
  %31 = call noundef i64 @_ZNK6casadi16SparsityInternal5size2Ev(ptr noundef nonnull align 8 dereferenceable(56) %22)
  store i64 %31, ptr %9, align 8
  %32 = call noundef ptr @_ZNK6casadi16SparsityInternal6colindEv(ptr noundef nonnull align 8 dereferenceable(56) %22)
  store ptr %32, ptr %10, align 8
  %33 = call noundef ptr @_ZNK6casadi16SparsityInternal3rowEv(ptr noundef nonnull align 8 dereferenceable(56) %22)
  store ptr %33, ptr %11, align 8
  %34 = load ptr, ptr %6, align 8
  %35 = call noundef i64 @_ZNK6casadi8Sparsity5size1Ev(ptr noundef nonnull align 8 dereferenceable(8) %34)
  store i64 %35, ptr %12, align 8
  %36 = load ptr, ptr %6, align 8
  %37 = call noundef i64 @_ZNK6casadi8Sparsity5size2Ev(ptr noundef nonnull align 8 dereferenceable(8) %36)
  store i64 %37, ptr %13, align 8
  %38 = load ptr, ptr %6, align 8
  %39 = call noundef ptr @_ZNK6casadi8Sparsity6colindEv(ptr noundef nonnull align 8 dereferenceable(8) %38)
  store ptr %39, ptr %14, align 8
  %40 = load ptr, ptr %6, align 8
  %41 = call noundef ptr @_ZNK6casadi8Sparsity3rowEv(ptr noundef nonnull align 8 dereferenceable(8) %40)
  store ptr %41, ptr %15, align 8
  %42 = load i64, ptr %8, align 8
  %43 = load i64, ptr %12, align 8
  %44 = icmp ne i64 %42, %43
  br i1 %44, label %51, label %45

45:                                               ; preds = %29
  %46 = load i64, ptr %9, align 8
  %47 = load i64, ptr %7, align 8
  %48 = load i64, ptr %13, align 8
  %49 = mul nsw i64 %47, %48
  %50 = icmp ne i64 %46, %49
  br i1 %50, label %51, label %52

51:                                               ; preds = %45, %29
  store i1 false, ptr %4, align 1
  br label %135

52:                                               ; preds = %45
  %53 = load ptr, ptr %10, align 8
  %54 = load i64, ptr %9, align 8
  %55 = getelementptr inbounds i64, ptr %53, i64 %54
  %56 = load i64, ptr %55, align 8
  store i64 %56, ptr %16, align 8
  %57 = load ptr, ptr %14, align 8
  %58 = load i64, ptr %13, align 8
  %59 = getelementptr inbounds i64, ptr %57, i64 %58
  %60 = load i64, ptr %59, align 8
  store i64 %60, ptr %17, align 8
  %61 = load i64, ptr %16, align 8
  %62 = load i64, ptr %7, align 8
  %63 = load i64, ptr %17, align 8
  %64 = mul nsw i64 %62, %63
  %65 = icmp ne i64 %61, %64
  br i1 %65, label %66, label %67

66:                                               ; preds = %52
  store i1 false, ptr %4, align 1
  br label %135

67:                                               ; preds = %52
  %68 = load i64, ptr %17, align 8
  %69 = load i64, ptr %12, align 8
  %70 = load i64, ptr %13, align 8
  %71 = mul nsw i64 %69, %70
  %72 = icmp eq i64 %68, %71
  br i1 %72, label %73, label %74

73:                                               ; preds = %67
  store i1 true, ptr %4, align 1
  br label %135

74:                                               ; preds = %67
  store i64 0, ptr %18, align 8
  %75 = load ptr, ptr %10, align 8
  %76 = getelementptr inbounds i64, ptr %75, i32 1
  store ptr %76, ptr %10, align 8
  store i32 0, ptr %19, align 4
  br label %77

77:                                               ; preds = %131, %74
  %78 = load i32, ptr %19, align 4
  %79 = sext i32 %78 to i64
  %80 = load i64, ptr %7, align 8
  %81 = icmp slt i64 %79, %80
  br i1 %81, label %82, label %134

82:                                               ; preds = %77
  store i32 0, ptr %20, align 4
  br label %83

83:                                               ; preds = %103, %82
  %84 = load i32, ptr %20, align 4
  %85 = sext i32 %84 to i64
  %86 = load i64, ptr %13, align 8
  %87 = icmp slt i64 %85, %86
  br i1 %87, label %88, label %106

88:                                               ; preds = %83
  %89 = load ptr, ptr %14, align 8
  %90 = load i32, ptr %20, align 4
  %91 = add nsw i32 %90, 1
  %92 = sext i32 %91 to i64
  %93 = getelementptr inbounds i64, ptr %89, i64 %92
  %94 = load i64, ptr %93, align 8
  %95 = load i64, ptr %18, align 8
  %96 = add nsw i64 %94, %95
  %97 = load ptr, ptr %10, align 8
  %98 = getelementptr inbounds i64, ptr %97, i32 1
  store ptr %98, ptr %10, align 8
  %99 = load i64, ptr %97, align 8
  %100 = icmp ne i64 %96, %99
  br i1 %100, label %101, label %102

101:                                              ; preds = %88
  store i1 false, ptr %4, align 1
  br label %135

102:                                              ; preds = %88
  br label %103

103:                                              ; preds = %102
  %104 = load i32, ptr %20, align 4
  %105 = add nsw i32 %104, 1
  store i32 %105, ptr %20, align 4
  br label %83, !llvm.loop !201

106:                                              ; preds = %83
  store i32 0, ptr %21, align 4
  br label %107

107:                                              ; preds = %124, %106
  %108 = load i32, ptr %21, align 4
  %109 = sext i32 %108 to i64
  %110 = load i64, ptr %17, align 8
  %111 = icmp slt i64 %109, %110
  br i1 %111, label %112, label %127

112:                                              ; preds = %107
  %113 = load ptr, ptr %15, align 8
  %114 = load i32, ptr %21, align 4
  %115 = sext i32 %114 to i64
  %116 = getelementptr inbounds i64, ptr %113, i64 %115
  %117 = load i64, ptr %116, align 8
  %118 = load ptr, ptr %11, align 8
  %119 = getelementptr inbounds i64, ptr %118, i32 1
  store ptr %119, ptr %11, align 8
  %120 = load i64, ptr %118, align 8
  %121 = icmp ne i64 %117, %120
  br i1 %121, label %122, label %123

122:                                              ; preds = %112
  store i1 false, ptr %4, align 1
  br label %135

123:                                              ; preds = %112
  br label %124

124:                                              ; preds = %123
  %125 = load i32, ptr %21, align 4
  %126 = add nsw i32 %125, 1
  store i32 %126, ptr %21, align 4
  br label %107, !llvm.loop !202

127:                                              ; preds = %107
  %128 = load i64, ptr %17, align 8
  %129 = load i64, ptr %18, align 8
  %130 = add nsw i64 %129, %128
  store i64 %130, ptr %18, align 8
  br label %131

131:                                              ; preds = %127
  %132 = load i32, ptr %19, align 4
  %133 = add nsw i32 %132, 1
  store i32 %133, ptr %19, align 4
  br label %77, !llvm.loop !203

134:                                              ; preds = %77
  store i1 true, ptr %4, align 1
  br label %135

135:                                              ; preds = %134, %122, %101, %73, %66, %51, %28
  %136 = load i1, ptr %4, align 1
  ret i1 %136
}