; Function Attrs: mustprogress uwtable
define noundef zeroext i1 @_ZNK6casadi16SparsityInternal10is_stackedERKNS_8SparsityEx(ptr noundef nonnull align 8 dereferenceable(56) %0, ptr noundef nonnull align 8 dereferenceable(8) %1, i64 noundef %2) local_unnamed_addr #6 align 2 {
  %4 = icmp eq i64 %2, 1
  br i1 %4, label %5, label %7

5:                                                ; preds = %3
  %6 = tail call noundef zeroext i1 @_ZNK6casadi16SparsityInternal8is_equalERKNS_8SparsityE(ptr noundef nonnull align 8 dereferenceable(56) %0, ptr noundef nonnull align 8 dereferenceable(8) %1)
  br i1 %6, label %.loopexit, label %7

7:                                                ; preds = %5, %3
  %8 = getelementptr inbounds i8, ptr %0, i64 24
  %9 = load ptr, ptr %8, align 8
  %10 = load i64, ptr %9, align 8
  %11 = getelementptr inbounds i8, ptr %9, i64 8
  %12 = load i64, ptr %11, align 8
  %13 = getelementptr inbounds i8, ptr %9, i64 16
  %14 = getelementptr inbounds i64, ptr %13, i64 %12
  %15 = getelementptr inbounds i8, ptr %14, i64 8
  %16 = tail call noundef i64 @_ZNK6casadi8Sparsity5size1Ev(ptr noundef nonnull align 8 dereferenceable(8) %1)
  %17 = tail call noundef i64 @_ZNK6casadi8Sparsity5size2Ev(ptr noundef nonnull align 8 dereferenceable(8) %1)
  %18 = tail call noundef ptr @_ZNK6casadi8Sparsity6colindEv(ptr noundef nonnull align 8 dereferenceable(8) %1)
  %19 = tail call noundef ptr @_ZNK6casadi8Sparsity3rowEv(ptr noundef nonnull align 8 dereferenceable(8) %1)
  %.not = icmp eq i64 %10, %16
  %20 = mul nsw i64 %17, %2
  %.not52 = icmp eq i64 %12, %20
  %or.cond = select i1 %.not, i1 %.not52, i1 false
  br i1 %or.cond, label %21, label %.loopexit

21:                                               ; preds = %7
  %22 = load i64, ptr %14, align 8
  %23 = getelementptr inbounds i64, ptr %18, i64 %17
  %24 = load i64, ptr %23, align 8
  %.fr82 = freeze i64 %24
  %25 = mul nsw i64 %.fr82, %2
  %.not53 = icmp eq i64 %22, %25
  br i1 %.not53, label %26, label %.loopexit

26:                                               ; preds = %21
  %27 = mul nsw i64 %17, %10
  %28 = icmp eq i64 %.fr82, %27
  br i1 %28, label %.loopexit, label %29

29:                                               ; preds = %26
  %30 = getelementptr inbounds i8, ptr %9, i64 24
  %31 = icmp sgt i64 %2, 0
  br i1 %31, label %.preheader56.lr.ph, label %.loopexit

.preheader56.lr.ph:                               ; preds = %29
  %32 = icmp sgt i64 %17, 0
  %33 = icmp sgt i64 %.fr82, 0
  br i1 %32, label %.preheader56.lr.ph.split.us, label %.preheader56.lr.ph.split

.preheader56.lr.ph.split.us:                      ; preds = %.preheader56.lr.ph
  %34 = shl i64 %17, 3
  br i1 %33, label %.preheader56.us.us.preheader, label %.preheader56.us

.preheader56.us.us.preheader:                     ; preds = %.preheader56.lr.ph.split.us
  %35 = shl i64 %.fr82, 3
  br label %.preheader56.us.us

.preheader56.us.us:                               ; preds = %.preheader56.us.us.preheader, %._crit_edge.us.us
  %indvars.iv118 = phi i64 [ 0, %.preheader56.us.us.preheader ], [ %indvars.iv.next119, %._crit_edge.us.us ]
  %.04369.us.us = phi i64 [ 0, %.preheader56.us.us.preheader ], [ %49, %._crit_edge.us.us ]
  %.04568.us.us = phi ptr [ %30, %.preheader56.us.us.preheader ], [ %scevgep110, %._crit_edge.us.us ]
  %.04667.us.us = phi ptr [ %15, %.preheader56.us.us.preheader ], [ %scevgep115, %._crit_edge.us.us ]
  %scevgep110 = getelementptr i8, ptr %.04568.us.us, i64 %34
  br label %42

36:                                               ; preds = %..preheader_crit_edge.us.us, %40
  %indvars.iv113 = phi i64 [ 0, %..preheader_crit_edge.us.us ], [ %indvars.iv.next114, %40 ]
  %.14763.us.us = phi ptr [ %.04667.us.us, %..preheader_crit_edge.us.us ], [ %41, %40 ]
  %37 = getelementptr inbounds i64, ptr %19, i64 %indvars.iv113
  %38 = load i64, ptr %37, align 8
  %39 = load i64, ptr %.14763.us.us, align 8
  %.not54.us.us = icmp eq i64 %38, %39
  br i1 %.not54.us.us, label %40, label %.loopexit

40:                                               ; preds = %36
  %41 = getelementptr inbounds i8, ptr %.14763.us.us, i64 8
  %indvars.iv.next114 = add nuw nsw i64 %indvars.iv113, 1
  %exitcond117.not = icmp eq i64 %indvars.iv.next114, %.fr82
  br i1 %exitcond117.not, label %._crit_edge.us.us, label %36, !llvm.loop !294

42:                                               ; preds = %47, %.preheader56.us.us
  %indvars.iv108 = phi i64 [ %indvars.iv.next109, %47 ], [ 0, %.preheader56.us.us ]
  %.161.us.us = phi ptr [ %48, %47 ], [ %.04568.us.us, %.preheader56.us.us ]
  %indvars.iv.next109 = add nuw nsw i64 %indvars.iv108, 1
  %43 = getelementptr inbounds i64, ptr %18, i64 %indvars.iv.next109
  %44 = load i64, ptr %43, align 8
  %45 = add nsw i64 %44, %.04369.us.us
  %46 = load i64, ptr %.161.us.us, align 8
  %.not55.us.us = icmp eq i64 %45, %46
  br i1 %.not55.us.us, label %47, label %.loopexit

47:                                               ; preds = %42
  %48 = getelementptr inbounds i8, ptr %.161.us.us, i64 8
  %exitcond112.not = icmp eq i64 %indvars.iv.next109, %17
  br i1 %exitcond112.not, label %..preheader_crit_edge.us.us, label %42, !llvm.loop !295

..preheader_crit_edge.us.us:                      ; preds = %47
  %scevgep115 = getelementptr i8, ptr %.04667.us.us, i64 %35
  br label %36

._crit_edge.us.us:                                ; preds = %40
  %49 = add nuw nsw i64 %.04369.us.us, %.fr82
  %indvars.iv.next119 = add nuw nsw i64 %indvars.iv118, 1
  %exitcond121.not = icmp eq i64 %indvars.iv.next119, %2
  br i1 %exitcond121.not, label %.loopexit, label %.preheader56.us.us, !llvm.loop !296

.preheader56.us:                                  ; preds = %.preheader56.lr.ph.split.us, %..preheader_crit_edge.us
  %indvars.iv104 = phi i64 [ %indvars.iv.next105, %..preheader_crit_edge.us ], [ 0, %.preheader56.lr.ph.split.us ]
  %.04369.us = phi i64 [ %57, %..preheader_crit_edge.us ], [ 0, %.preheader56.lr.ph.split.us ]
  %.04568.us = phi ptr [ %scevgep101, %..preheader_crit_edge.us ], [ %30, %.preheader56.lr.ph.split.us ]
  %scevgep101 = getelementptr i8, ptr %.04568.us, i64 %34
  br label %50

50:                                               ; preds = %.preheader56.us, %55
  %indvars.iv99 = phi i64 [ 0, %.preheader56.us ], [ %indvars.iv.next100, %55 ]
  %.161.us = phi ptr [ %.04568.us, %.preheader56.us ], [ %56, %55 ]
  %indvars.iv.next100 = add nuw nsw i64 %indvars.iv99, 1
  %51 = getelementptr inbounds i64, ptr %18, i64 %indvars.iv.next100
  %52 = load i64, ptr %51, align 8
  %53 = add nsw i64 %52, %.04369.us
  %54 = load i64, ptr %.161.us, align 8
  %.not55.us = icmp eq i64 %53, %54
  br i1 %.not55.us, label %55, label %.loopexit

55:                                               ; preds = %50
  %56 = getelementptr inbounds i8, ptr %.161.us, i64 8
  %exitcond103.not = icmp eq i64 %indvars.iv.next100, %17
  br i1 %exitcond103.not, label %..preheader_crit_edge.us, label %50, !llvm.loop !295

..preheader_crit_edge.us:                         ; preds = %55
  %57 = add nsw i64 %.04369.us, %.fr82
  %indvars.iv.next105 = add nuw nsw i64 %indvars.iv104, 1
  %exitcond107.not = icmp eq i64 %indvars.iv.next105, %2
  br i1 %exitcond107.not, label %.loopexit, label %.preheader56.us, !llvm.loop !296

.preheader56.lr.ph.split:                         ; preds = %.preheader56.lr.ph
  br i1 %33, label %.preheader56.us71.preheader, label %.loopexit

.preheader56.us71.preheader:                      ; preds = %.preheader56.lr.ph.split
  %58 = shl i64 %.fr82, 3
  br label %.preheader56.us71

.preheader56.us71:                                ; preds = %.preheader56.us71.preheader, %._crit_edge.us80
  %indvars.iv95 = phi i64 [ 0, %.preheader56.us71.preheader ], [ %indvars.iv.next96, %._crit_edge.us80 ]
  %.04667.us74 = phi ptr [ %15, %.preheader56.us71.preheader ], [ %scevgep, %._crit_edge.us80 ]
  %scevgep = getelementptr i8, ptr %.04667.us74, i64 %58
  br label %59

59:                                               ; preds = %.preheader56.us71, %63
  %indvars.iv = phi i64 [ 0, %.preheader56.us71 ], [ %indvars.iv.next, %63 ]
  %.14763.us77 = phi ptr [ %.04667.us74, %.preheader56.us71 ], [ %64, %63 ]
  %60 = getelementptr inbounds i64, ptr %19, i64 %indvars.iv
  %61 = load i64, ptr %60, align 8
  %62 = load i64, ptr %.14763.us77, align 8
  %.not54.us78 = icmp eq i64 %61, %62
  br i1 %.not54.us78, label %63, label %.loopexit

63:                                               ; preds = %59
  %64 = getelementptr inbounds i8, ptr %.14763.us77, i64 8
  %indvars.iv.next = add nuw nsw i64 %indvars.iv, 1
  %exitcond.not = icmp eq i64 %indvars.iv.next, %.fr82
  br i1 %exitcond.not, label %._crit_edge.us80, label %59, !llvm.loop !294

._crit_edge.us80:                                 ; preds = %63
  %indvars.iv.next96 = add nuw nsw i64 %indvars.iv95, 1
  %exitcond98.not = icmp eq i64 %indvars.iv.next96, %2
  br i1 %exitcond98.not, label %.loopexit, label %.preheader56.us71, !llvm.loop !296

.loopexit:                                        ; preds = %._crit_edge.us80, %59, %..preheader_crit_edge.us, %50, %._crit_edge.us.us, %42, %36, %.preheader56.lr.ph.split, %29, %26, %21, %7, %5
  %.044 = phi i1 [ true, %5 ], [ false, %7 ], [ false, %21 ], [ true, %26 ], [ true, %29 ], [ true, %.preheader56.lr.ph.split ], [ false, %36 ], [ false, %42 ], [ true, %._crit_edge.us.us ], [ false, %50 ], [ true, %..preheader_crit_edge.us ], [ false, %59 ], [ true, %._crit_edge.us80 ]
  ret i1 %.044
}